; Function Attrs: mustprogress nounwind uwtable
define hidden void @_ZN6google8protobuf24MergedDescriptorDatabaseD2Ev(ptr noundef nonnull align 8 captures(none) dereferenceable(32) initializes((0, 8)) %0) unnamed_addr #8 align 2 personality ptr @__gxx_personality_v0 {
  store ptr getelementptr inbounds nuw inrange(-16, 56) (i8, ptr @_ZTVN6google8protobuf24MergedDescriptorDatabaseE, i64 16), ptr %0, align 8, !tbaa !3
  %2 = getelementptr inbounds nuw i8, ptr %0, i64 8
  %3 = load ptr, ptr %2, align 8, !tbaa !261
  %.not.i.i.i = icmp eq ptr %3, null
  br i1 %.not.i.i.i, label %_ZNSt6vectorIPN6google8protobuf18DescriptorDatabaseESaIS3_EED2Ev.exit, label %4

4:                                                ; preds = %1
  tail call void @_ZdlPv(ptr noundef nonnull %3) #27
  br label %_ZNSt6vectorIPN6google8protobuf18DescriptorDatabaseESaIS3_EED2Ev.exit

_ZNSt6vectorIPN6google8protobuf18DescriptorDatabaseESaIS3_EED2Ev.exit: ; preds = %1, %4
  ret void
}